target datalayout = "e-m:e-p270:32:32-p271:32:32-p272:64:64-i64:64-i128:128-f80:128-n8:16:32:64-S128"
target triple = "x86_64-unknown-linux-gnu"

%"struct.arrow::compute::KeyColumnMetadata" = type { i8, i8, i32 }

; Function Attrs: mustprogress nounwind uwtable
define noundef zeroext i1 @_ZN5arrow7compute13EncoderBinary9IsIntegerERKNS0_17KeyColumnMetadataE(ptr noundef nonnull align 4 dereferenceable(8) %metadata) #2 align 2 {
entry:
  %retval = alloca i1, align 1
  %metadata.addr = alloca ptr, align 8
  %is_fixed_length = alloca i8, align 1
  %size = alloca i32, align 4
  store ptr %metadata, ptr %metadata.addr, align 8
  %0 = load ptr, ptr %metadata.addr, align 8
  %is_null_type = getelementptr inbounds %"struct.arrow::compute::KeyColumnMetadata", ptr %0, i32 0, i32 1
  %1 = load i8, ptr %is_null_type, align 1
  %tobool = trunc i8 %1 to i1
  br i1 %tobool, label %if.then, label %if.end

if.then:                                          ; preds = %entry
  store i1 false, ptr %retval, align 1
  br label %return

if.end:                                           ; preds = %entry
  %2 = load ptr, ptr %metadata.addr, align 8
  %is_fixed_length1 = getelementptr inbounds %"struct.arrow::compute::KeyColumnMetadata", ptr %2, i32 0, i32 0
  %3 = load i8, ptr %is_fixed_length1, align 4
  %tobool2 = trunc i8 %3 to i1
  %frombool = zext i1 %tobool2 to i8
  store i8 %frombool, ptr %is_fixed_length, align 1
  %4 = load ptr, ptr %metadata.addr, align 8
  %fixed_length = getelementptr inbounds %"struct.arrow::compute::KeyColumnMetadata", ptr %4, i32 0, i32 2
  %5 = load i32, ptr %fixed_length, align 4
  store i32 %5, ptr %size, align 4
  %6 = load i8, ptr %is_fixed_length, align 1
  %tobool3 = trunc i8 %6 to i1
  br i1 %tobool3, label %land.rhs, label %land.end

land.rhs:                                         ; preds = %if.end
  %7 = load i32, ptr %size, align 4
  %cmp = icmp eq i32 %7, 0
  br i1 %cmp, label %lor.end, label %lor.lhs.false

lor.lhs.false:                                    ; preds = %land.rhs
  %8 = load i32, ptr %size, align 4
  %cmp4 = icmp eq i32 %8, 1
  br i1 %cmp4, label %lor.end, label %lor.lhs.false5

lor.lhs.false5:                                   ; preds = %lor.lhs.false
  %9 = load i32, ptr %size, align 4
  %cmp6 = icmp eq i32 %9, 2
  br i1 %cmp6, label %lor.end, label %lor.lhs.false7

lor.lhs.false7:                                   ; preds = %lor.lhs.false5
  %10 = load i32, ptr %size, align 4
  %cmp8 = icmp eq i32 %10, 4
  br i1 %cmp8, label %lor.end, label %lor.rhs

lor.rhs:                                          ; preds = %lor.lhs.false7
  %11 = load i32, ptr %size, align 4
  %cmp9 = icmp eq i32 %11, 8
  br label %lor.end

lor.end:                                          ; preds = %lor.rhs, %lor.lhs.false7, %lor.lhs.false5, %lor.lhs.false, %land.rhs
  %12 = phi i1 [ true, %lor.lhs.false7 ], [ true, %lor.lhs.false5 ], [ true, %lor.lhs.false ], [ true, %land.rhs ], [ %cmp9, %lor.rhs ]
  br label %land.end

land.end:                                         ; preds = %lor.end, %if.end
  %13 = phi i1 [ false, %if.end ], [ %12, %lor.end ]
  store i1 %13, ptr %retval, align 1
  br label %return

return:                                           ; preds = %land.end, %if.then
  %14 = load i1, ptr %retval, align 1
  ret i1 %14
}