; Function Attrs: mustprogress nofree norecurse nosync nounwind willreturn memory(argmem: read) uwtable
define noundef zeroext i1 @_ZN5arrow7compute13EncoderBinary9IsIntegerERKNS0_17KeyColumnMetadataE(ptr noundef nonnull readonly align 4 captures(none) dereferenceable(8) %metadata) local_unnamed_addr #5 align 2 {
entry:
  %is_null_type = getelementptr inbounds nuw i8, ptr %metadata, i64 1
  %0 = load i8, ptr %is_null_type, align 1
  %tobool = trunc i8 %0 to i1
  br i1 %tobool, label %return, label %if.end

if.end:                                           ; preds = %entry
  %1 = load i8, ptr %metadata, align 4
  %tobool2 = trunc i8 %1 to i1
  br i1 %tobool2, label %land.rhs, label %return

land.rhs:                                         ; preds = %if.end
  %fixed_length = getelementptr inbounds nuw i8, ptr %metadata, i64 4
  %2 = load i32, ptr %fixed_length, align 4
  %3 = icmp ult i32 %2, 9
  br i1 %3, label %switch.lookup, label %return

switch.lookup:                                    ; preds = %land.rhs
  %switch.cast = trunc nuw i32 %2 to i9
  %switch.downshift = lshr i9 -233, %switch.cast
  %switch.masked = trunc i9 %switch.downshift to i1
  br label %return

return:                                           ; preds = %land.rhs, %switch.lookup, %if.end, %entry
  %retval.0 = phi i1 [ false, %entry ], [ false, %if.end ], [ %switch.masked, %switch.lookup ], [ false, %land.rhs ]
  ret i1 %retval.0
}